(dp1
S'lala'
p2
S'a2d10a3211b415832791a6bc6031f9ab'
p3
sS'haha'
p4
S'4f0b36a34946153c358f8b243428a1eb'
p5
sS'yuyiwei'
p6
S'71a57032b5e227a4159552044585cc35'
p7
sS'mimi'
p8
S'226e9464fcf3f34920fcce05b8764efc'
p9
sS'yuyu'
p10
S'c704a571bea37eb77621b0900c2da39b'
p11
sS'chenzhuo'
p12
S'5d8acdc35b40f0828b084165a23d949e'
p13
s.