(dp1
S'wangwei'
p2
S'cf86460ab89e3a105c07ec35e0959b26'
p3
sS'lala'
p4
S'a2d10a3211b415832791a6bc6031f9ab'
p5
sS'haha'
p6
S'4f0b36a34946153c358f8b243428a1eb'
p7
sS'yuyiwei'
p8
S'71a57032b5e227a4159552044585cc35'
p9
sS'yuyu'
p10
S'c704a571bea37eb77621b0900c2da39b'
p11
sS'mimi'
p12
S'226e9464fcf3f34920fcce05b8764efc'
p13
sS'chenzhuo'
p14
S'5d8acdc35b40f0828b084165a23d949e'
p15
s.